; Function Attrs: nounwind uwtable
define dso_local void @SlabFree(ptr noundef %0) local_unnamed_addr #0 {
  %2 = getelementptr inbounds i8, ptr %0, i64 -8
  %3 = load i64, ptr %2, align 8
  %4 = lshr i64 %3, 34
  %5 = and i64 %4, 1073741822
  %6 = sub nsw i64 0, %5
  %7 = getelementptr inbounds i8, ptr %2, i64 %6
  %8 = load ptr, ptr %7, align 8
  %9 = getelementptr inbounds nuw i8, ptr %7, i64 16
  %10 = load ptr, ptr %9, align 8
  store ptr %10, ptr %0, align 8
  store ptr %2, ptr %9, align 8
  %11 = getelementptr inbounds nuw i8, ptr %7, i64 8
  %12 = load i32, ptr %11, align 8
  %13 = add i32 %12, 1
  store i32 %13, ptr %11, align 8
  %14 = getelementptr i8, ptr %8, i64 100
  %.val43 = load i32, ptr %14, align 4
  %15 = sub i32 0, %12
  %16 = ashr i32 %15, %.val43
  %17 = sub i32 0, %16
  %.not52 = ashr i32 %12, %.val43
  %.neg = add i32 %.not52, 1
  %.not = icmp eq i32 %.neg, %17
  br i1 %.not, label %42, label %18, !prof !10

18:                                               ; preds = %1
  %19 = getelementptr inbounds nuw i8, ptr %8, i64 128
  %20 = getelementptr inbounds nuw i8, ptr %7, i64 32
  %21 = getelementptr inbounds nuw i8, ptr %7, i64 40
  %22 = load ptr, ptr %21, align 8
  %23 = load ptr, ptr %20, align 8
  %24 = getelementptr inbounds nuw i8, ptr %23, i64 8
  store ptr %22, ptr %24, align 8
  %25 = load ptr, ptr %20, align 8
  store ptr %25, ptr %22, align 8
  %26 = sext i32 %.neg to i64
  %27 = getelementptr inbounds [3 x %struct.dlist_head], ptr %19, i64 0, i64 %26
  %28 = getelementptr inbounds nuw i8, ptr %27, i64 8
  %29 = load ptr, ptr %28, align 8
  %30 = icmp eq ptr %29, null
  br i1 %30, label %31, label %dlist_push_head.exit

31:                                               ; preds = %18
  store ptr %27, ptr %27, align 8
  br label %dlist_push_head.exit

dlist_push_head.exit:                             ; preds = %18, %31
  %32 = phi ptr [ %27, %31 ], [ %29, %18 ]
  store ptr %32, ptr %21, align 8
  store ptr %27, ptr %20, align 8
  store ptr %20, ptr %32, align 8
  store ptr %20, ptr %28, align 8
  %33 = getelementptr inbounds nuw i8, ptr %8, i64 96
  %34 = load i32, ptr %33, align 8
  %.not41 = icmp slt i32 %34, %17
  br i1 %.not41, label %42, label %.preheader53

.preheader53:                                     ; preds = %dlist_push_head.exit, %40
  %indvars.iv.i = phi i64 [ %indvars.iv.next.i, %40 ], [ 1, %dlist_push_head.exit ]
  %35 = getelementptr inbounds nuw [3 x %struct.dlist_head], ptr %19, i64 0, i64 %indvars.iv.i
  %36 = getelementptr inbounds nuw i8, ptr %35, i64 8
  %37 = load ptr, ptr %36, align 8
  %38 = icmp eq ptr %37, null
  %39 = icmp eq ptr %37, %35
  %spec.select.i.i = or i1 %38, %39
  br i1 %spec.select.i.i, label %40, label %.split.loop.exit.i

40:                                               ; preds = %.preheader53
  %indvars.iv.next.i = add nuw nsw i64 %indvars.iv.i, 1
  %exitcond.i = icmp eq i64 %indvars.iv.next.i, 3
  br i1 %exitcond.i, label %SlabFindNextBlockListIndex.exit, label %.preheader53, !llvm.loop !12

.split.loop.exit.i:                               ; preds = %.preheader53
  %41 = trunc nuw nsw i64 %indvars.iv.i to i32
  br label %SlabFindNextBlockListIndex.exit

SlabFindNextBlockListIndex.exit:                  ; preds = %40, %.split.loop.exit.i
  %spec.select.i = phi i32 [ %41, %.split.loop.exit.i ], [ 0, %40 ]
  store i32 %spec.select.i, ptr %33, align 8
  br label %42

42:                                               ; preds = %dlist_push_head.exit, %SlabFindNextBlockListIndex.exit, %1
  %43 = load i32, ptr %11, align 8
  %44 = getelementptr inbounds nuw i8, ptr %8, i64 92
  %45 = load i32, ptr %44, align 4
  %46 = icmp eq i32 %43, %45
  br i1 %46, label %47, label %91, !prof !11

47:                                               ; preds = %42
  %48 = getelementptr inbounds nuw i8, ptr %8, i64 128
  %49 = sext i32 %.neg to i64
  %50 = getelementptr inbounds [3 x %struct.dlist_head], ptr %48, i64 0, i64 %49
  %51 = getelementptr inbounds nuw i8, ptr %7, i64 32
  %52 = getelementptr inbounds nuw i8, ptr %7, i64 40
  %53 = load ptr, ptr %52, align 8
  %54 = load ptr, ptr %51, align 8
  %55 = getelementptr inbounds nuw i8, ptr %54, i64 8
  store ptr %53, ptr %55, align 8
  %56 = load ptr, ptr %51, align 8
  store ptr %56, ptr %53, align 8
  %57 = getelementptr inbounds nuw i8, ptr %8, i64 104
  %58 = getelementptr i8, ptr %8, i64 120
  %.val = load i32, ptr %58, align 8
  %59 = icmp ult i32 %.val, 10
  br i1 %59, label %60, label %68

60:                                               ; preds = %47
  %61 = getelementptr inbounds nuw i8, ptr %8, i64 112
  %62 = load ptr, ptr %61, align 8
  %63 = icmp eq ptr %62, null
  br i1 %63, label %64, label %dclist_push_head.exit

64:                                               ; preds = %60
  store ptr %57, ptr %57, align 8
  store i32 0, ptr %58, align 8
  br label %dclist_push_head.exit

dclist_push_head.exit:                            ; preds = %60, %64
  %65 = phi ptr [ %57, %64 ], [ %62, %60 ]
  store ptr %65, ptr %52, align 8
  store ptr %57, ptr %51, align 8
  store ptr %51, ptr %65, align 8
  store ptr %51, ptr %61, align 8
  %66 = load i32, ptr %58, align 8
  %67 = add i32 %66, 1
  store i32 %67, ptr %58, align 8
  br label %75

68:                                               ; preds = %47
  tail call void @free(ptr noundef nonnull %7) #13
  %69 = getelementptr inbounds nuw i8, ptr %8, i64 88
  %70 = load i32, ptr %69, align 8
  %71 = zext i32 %70 to i64
  %72 = getelementptr inbounds nuw i8, ptr %8, i64 8
  %73 = load i64, ptr %72, align 8
  %74 = sub i64 %73, %71
  store i64 %74, ptr %72, align 8
  br label %75

75:                                               ; preds = %68, %dclist_push_head.exit
  %76 = getelementptr inbounds nuw i8, ptr %8, i64 96
  %77 = load i32, ptr %76, align 8
  %78 = icmp eq i32 %77, %.neg
  br i1 %78, label %79, label %91

79:                                               ; preds = %75
  %80 = getelementptr inbounds nuw i8, ptr %50, i64 8
  %81 = load ptr, ptr %80, align 8
  %82 = icmp eq ptr %81, null
  %83 = icmp eq ptr %81, %50
  %spec.select.i44 = or i1 %82, %83
  br i1 %spec.select.i44, label %.preheader, label %91

.preheader:                                       ; preds = %79, %89
  %indvars.iv.i45 = phi i64 [ %indvars.iv.next.i49, %89 ], [ 1, %79 ]
  %84 = getelementptr inbounds nuw [3 x %struct.dlist_head], ptr %48, i64 0, i64 %indvars.iv.i45
  %85 = getelementptr inbounds nuw i8, ptr %84, i64 8
  %86 = load ptr, ptr %85, align 8
  %87 = icmp eq ptr %86, null
  %88 = icmp eq ptr %86, %84
  %spec.select.i.i46 = or i1 %87, %88
  br i1 %spec.select.i.i46, label %89, label %.split.loop.exit.i47

89:                                               ; preds = %.preheader
  %indvars.iv.next.i49 = add nuw nsw i64 %indvars.iv.i45, 1
  %exitcond.i50 = icmp eq i64 %indvars.iv.next.i49, 3
  br i1 %exitcond.i50, label %SlabFindNextBlockListIndex.exit51, label %.preheader, !llvm.loop !12

.split.loop.exit.i47:                             ; preds = %.preheader
  %90 = trunc nuw nsw i64 %indvars.iv.i45 to i32
  br label %SlabFindNextBlockListIndex.exit51

SlabFindNextBlockListIndex.exit51:                ; preds = %89, %.split.loop.exit.i47
  %spec.select.i48 = phi i32 [ %90, %.split.loop.exit.i47 ], [ 0, %89 ]
  store i32 %spec.select.i48, ptr %76, align 8
  br label %91

91:                                               ; preds = %75, %79, %SlabFindNextBlockListIndex.exit51, %42
  ret void
}